; Function Attrs: nounwind uwtable
define dso_local i32 @_hash_get_oldblock_from_newbucket(ptr noundef %0, i32 noundef %1) local_unnamed_addr #1 {
  %3 = tail call range(i32 0, 33) i32 @llvm.ctlz.i32(i32 %1, i1 true)
  %4 = xor i32 %3, 31
  %notmask = shl nsw i32 -1, %4
  %5 = xor i32 %notmask, -1
  %6 = and i32 %1, %5
  %7 = tail call i32 @_hash_getbuf(ptr noundef %0, i32 noundef 0, i32 noundef 1, i32 noundef 8) #8
  %8 = icmp slt i32 %7, 0
  br i1 %8, label %9, label %15

9:                                                ; preds = %2
  %10 = load ptr, ptr @LocalBufferBlockPointers, align 8
  %11 = xor i32 %7, -1
  %12 = zext nneg i32 %11 to i64
  %13 = getelementptr inbounds nuw ptr, ptr %10, i64 %12
  %14 = load ptr, ptr %13, align 8
  br label %BufferGetPage.exit

15:                                               ; preds = %2
  %16 = load ptr, ptr @BufferBlocks, align 8
  %17 = add nsw i32 %7, -1
  %18 = sext i32 %17 to i64
  %19 = shl nsw i64 %18, 13
  %20 = getelementptr inbounds nuw i8, ptr %16, i64 %19
  br label %BufferGetPage.exit

BufferGetPage.exit:                               ; preds = %9, %15
  %.0.i.i = phi ptr [ %14, %9 ], [ %20, %15 ]
  %.not = icmp eq i32 %6, 0
  br i1 %.not, label %37, label %21

21:                                               ; preds = %BufferGetPage.exit
  %22 = getelementptr inbounds nuw i8, ptr %.0.i.i, i64 76
  %23 = tail call range(i32 0, 33) i32 @llvm.ctlz.i32(i32 %6, i1 true)
  %24 = sub nuw nsw i32 32, %23
  %25 = icmp samesign ult i32 %6, 512
  br i1 %25, label %_hash_spareindex.exit, label %26

26:                                               ; preds = %21
  %27 = shl nuw nsw i32 %24, 2
  %28 = add nsw i32 %27, -30
  %29 = sub nsw i32 29, %23
  %30 = lshr i32 %6, %29
  %31 = and i32 %30, 3
  %32 = add nuw nsw i32 %28, %31
  br label %_hash_spareindex.exit

_hash_spareindex.exit:                            ; preds = %21, %26
  %.0.i = phi i32 [ %32, %26 ], [ %24, %21 ]
  %33 = add nsw i32 %.0.i, -1
  %34 = zext nneg i32 %33 to i64
  %35 = getelementptr inbounds nuw [98 x i32], ptr %22, i64 0, i64 %34
  %36 = load i32, ptr %35, align 4
  br label %37

37:                                               ; preds = %BufferGetPage.exit, %_hash_spareindex.exit
  %38 = phi i32 [ %36, %_hash_spareindex.exit ], [ 0, %BufferGetPage.exit ]
  %39 = add nuw i32 %6, 1
  %40 = add i32 %39, %38
  tail call void @_hash_relbuf(ptr noundef %0, i32 noundef %7) #8
  ret i32 %40
}